; Function Attrs: mustprogress uwtable
define void @_ZN6casadi19FixedStepIntegratorC2ERKNSt7__cxx1112basic_stringIcSt11char_traitsIcESaIcEEERKNS_8FunctionEdRKSt6vectorIdSaIdEE(ptr noundef nonnull align 8 dereferenceable(1976) %0, ptr noundef nonnull align 8 dereferenceable(32) %1, ptr noundef nonnull align 8 dereferenceable(8) %2, double noundef %3, ptr nocapture noundef nonnull readonly align 8 dereferenceable(24) %4) unnamed_addr #3 align 2 {
  tail call void @_ZN6casadi10IntegratorC2ERKNSt7__cxx1112basic_stringIcSt11char_traitsIcESaIcEEERKNS_8FunctionEdRKSt6vectorIdSaIdEE(ptr noundef nonnull align 8 dereferenceable(1905) %0, ptr noundef nonnull align 8 dereferenceable(32) %1, ptr noundef nonnull align 8 dereferenceable(8) %2, double noundef %3, ptr noundef nonnull align 8 dereferenceable(24) %4)
  store ptr getelementptr inbounds ({ [124 x ptr], [3 x ptr] }, ptr @_ZTVN6casadi19FixedStepIntegratorE, i64 0, i32 0, i64 2), ptr %0, align 8
  %6 = getelementptr inbounds i8, ptr %0, i64 1520
  store ptr getelementptr inbounds ({ [124 x ptr], [3 x ptr] }, ptr @_ZTVN6casadi19FixedStepIntegratorE, i64 0, i32 1, i64 2), ptr %6, align 8
  %7 = getelementptr inbounds i8, ptr %0, i64 1920
  tail call void @llvm.memset.p0.i64(ptr noundef nonnull align 8 dereferenceable(24) %7, i8 0, i64 24, i1 false)
  %8 = getelementptr inbounds i8, ptr %0, i64 1912
  store i64 20, ptr %8, align 8
  ret void
}